; Function Attrs: mustprogress nounwind uwtable
define internal fastcc void @_ZSt11make_uniqueIN12_GLOBAL__N_121DefaultSimpleArgumentEJRKN4llvm6RecordERNS2_9StringRefERA5_KcbEENSt8__detail9_MakeUniqIT_E15__single_objectEDpOT0_(ptr dead_on_unwind noalias nocapture writable writeonly align 8 %0, ptr noundef nonnull align 8 dereferenceable(192) %1, ptr %.0.val, i64 %.8.val, ptr nocapture noundef nonnull readonly align 1 dereferenceable(1) %2) unnamed_addr #0 {
  %4 = alloca %"class.std::__cxx11::basic_string", align 8
  %5 = alloca %"class.std::__cxx11::basic_string", align 8
  %6 = alloca %"class.std::allocator", align 1
  %7 = tail call noalias noundef nonnull dereferenceable(136) ptr @_Znwm(i64 noundef 136) #25
  call void @_ZNSaIcEC1Ev(ptr noundef nonnull align 1 dereferenceable(1) %6) #22
  %8 = call noundef ptr @_ZNSt7__cxx1112basic_stringIcSt11char_traitsIcESaIcEE13_M_local_dataEv(ptr noundef nonnull align 8 dereferenceable(32) %5) #22
  call void @_ZNSt7__cxx1112basic_stringIcSt11char_traitsIcESaIcEE12_Alloc_hiderC1EPcRKS3_(ptr noundef nonnull align 8 dereferenceable(8) %5, ptr noundef %8, ptr noundef nonnull align 1 dereferenceable(1) %6) #22
  call void @_ZNSt7__cxx1112basic_stringIcSt11char_traitsIcESaIcEE12_M_constructIPKcEEvT_S8_St20forward_iterator_tag(ptr noundef nonnull align 8 dereferenceable(32) %5, ptr noundef nonnull @.str.539, ptr noundef nonnull getelementptr inbounds (i8, ptr @.str.539, i64 4))
  %9 = load i8, ptr %2, align 1
  %10 = and i8 %9, 1
  %11 = zext nneg i8 %10 to i64
  call void @llvm.lifetime.start.p0(i64 32, ptr nonnull %4)
  call void @_ZNSt7__cxx1112basic_stringIcSt11char_traitsIcESaIcEEC1ERKS4_(ptr noundef nonnull align 8 dereferenceable(32) %4, ptr noundef nonnull align 8 dereferenceable(32) %5) #22
  %12 = call { ptr, i64 } @_ZNK4llvm6Record16getValueAsStringENS_9StringRefE(ptr noundef nonnull align 8 dereferenceable(192) %1, ptr nonnull @.str.59, i64 4) #22
  %13 = extractvalue { ptr, i64 } %12, 0
  %14 = extractvalue { ptr, i64 } %12, 1
  call fastcc void @_ZN12_GLOBAL__N_18ArgumentC2EN4llvm9StringRefES2_(ptr noundef nonnull align 8 dereferenceable(90) %7, ptr %13, i64 %14, ptr %.0.val, i64 %.8.val)
  store ptr getelementptr inbounds inrange(-16, 200) (i8, ptr @_ZTVN12_GLOBAL__N_114SimpleArgumentE, i64 16), ptr %7, align 8
  %15 = getelementptr inbounds nuw i8, ptr %7, i64 96
  call void @_ZNSt7__cxx1112basic_stringIcSt11char_traitsIcESaIcEEC1EOS4_(ptr noundef nonnull align 8 dereferenceable(32) %15, ptr noundef nonnull align 8 dereferenceable(32) %4) #22
  call void @_ZNSt7__cxx1112basic_stringIcSt11char_traitsIcESaIcEED1Ev(ptr noundef nonnull align 8 dereferenceable(32) %4) #22
  store ptr getelementptr inbounds inrange(-16, 200) (i8, ptr @_ZTVN12_GLOBAL__N_121DefaultSimpleArgumentE, i64 16), ptr %7, align 8
  %16 = getelementptr inbounds nuw i8, ptr %7, i64 128
  store i64 %11, ptr %16, align 8
  call void @llvm.lifetime.end.p0(i64 32, ptr nonnull %4)
  store ptr %7, ptr %0, align 8
  call void @_ZNSt7__cxx1112basic_stringIcSt11char_traitsIcESaIcEED1Ev(ptr noundef nonnull align 8 dereferenceable(32) %5) #22
  call void @_ZNSaIcED1Ev(ptr noundef nonnull align 1 dereferenceable(1) %6) #22
  ret void
}